target datalayout = "e-m:e-p270:32:32-p271:32:32-p272:64:64-i64:64-i128:128-f80:128-n8:16:32:64-S128"
target triple = "x86_64-pc-linux-gnu"

%struct.RBasic = type { i64, i64 }
%struct.RArray = type { %struct.RBasic, %union.anon }
%union.anon = type { %struct.anon }
%struct.anon = type { i64, %union.anon.0, ptr }
%union.anon.0 = type { i64 }

@rb_cArray = dso_local global i64 0, align 8
@.str.3 = private unnamed_addr constant [11 x i8] c"../array.c\00", align 1

; Function Attrs: inlinehint nounwind sspstrong willreturn memory(none) uwtable
define internal zeroext i1 @RB_IMMEDIATE_P(i64 noundef %0) #11 {
  %2 = alloca i64, align 8
  store i64 %0, ptr %2, align 8, !tbaa !7
  %3 = load i64, ptr %2, align 8, !tbaa !7
  %4 = and i64 %3, 7
  %5 = icmp ne i64 %4, 0
  ret i1 %5
}

; Function Attrs: inlinehint nounwind sspstrong willreturn memory(none) uwtable
define internal zeroext i1 @RB_SPECIAL_CONST_P(i64 noundef %0) #11 {
  %2 = alloca i64, align 8
  store i64 %0, ptr %2, align 8, !tbaa !7
  %3 = load i64, ptr %2, align 8, !tbaa !7
  %4 = icmp eq i64 %3, 0
  br i1 %4, label %8, label %5

5:                                                ; preds = %1
  %6 = load i64, ptr %2, align 8, !tbaa !7
  %7 = call zeroext i1 @RB_IMMEDIATE_P(i64 noundef %6) #29
  br label %8

8:                                                ; preds = %5, %1
  %9 = phi i1 [ true, %1 ], [ %7, %5 ]
  ret i1 %9
}

; Function Attrs: inlinehint nounwind sspstrong uwtable
define internal i64 @rb_obj_written(i64 noundef %0, i64 noundef %1, i64 noundef %2, ptr noundef %3, i32 noundef %4) #1 {
  %6 = alloca i64, align 8
  %7 = alloca i64, align 8
  %8 = alloca i64, align 8
  %9 = alloca ptr, align 8
  %10 = alloca i32, align 4
  store i64 %0, ptr %6, align 8, !tbaa !7
  store i64 %1, ptr %7, align 8, !tbaa !7
  store i64 %2, ptr %8, align 8, !tbaa !7
  store ptr %3, ptr %9, align 8, !tbaa !28
  store i32 %4, ptr %10, align 4, !tbaa !31
  %11 = load i64, ptr %8, align 8, !tbaa !7
  %12 = call zeroext i1 @RB_SPECIAL_CONST_P(i64 noundef %11) #29
  br i1 %12, label %16, label %13

13:                                               ; preds = %5
  %14 = load i64, ptr %6, align 8, !tbaa !7
  %15 = load i64, ptr %8, align 8, !tbaa !7
  call void @rb_gc_writebarrier(i64 noundef %14, i64 noundef %15)
  br label %16

16:                                               ; preds = %13, %5
  %17 = load i64, ptr %6, align 8, !tbaa !7
  ret i64 %17
}

; Function Attrs: inlinehint nounwind sspstrong willreturn memory(read) uwtable
define internal i64 @RB_FL_TEST_RAW(i64 noundef %0, i64 noundef %1) #2 {
  %3 = alloca i64, align 8
  %4 = alloca i64, align 8
  store i64 %0, ptr %3, align 8, !tbaa !7
  store i64 %1, ptr %4, align 8, !tbaa !7
  %5 = load i64, ptr %3, align 8, !tbaa !7
  %6 = inttoptr i64 %5 to ptr
  %7 = getelementptr inbounds nuw %struct.RBasic, ptr %6, i32 0, i32 0
  %8 = load i64, ptr %7, align 8, !tbaa !11
  %9 = load i64, ptr %4, align 8, !tbaa !7
  %10 = and i64 %8, %9
  ret i64 %10
}

; Function Attrs: inlinehint nounwind sspstrong uwtable
define internal zeroext i1 @ARY_EMBED_P(i64 noundef %0) #1 {
  %2 = alloca i64, align 8
  store i64 %0, ptr %2, align 8, !tbaa !7
  %3 = load i64, ptr %2, align 8, !tbaa !7
  %4 = call i64 @RB_FL_TEST_RAW(i64 noundef %3, i64 noundef 8192) #26
  %5 = icmp ne i64 %4, 0
  ret i1 %5
}

; Function Attrs: nounwind sspstrong uwtable
define dso_local void @rb_ary_ptr_use_end(i64 noundef %0) #0 {
  %2 = alloca i64, align 8
  store i64 %0, ptr %2, align 8, !tbaa !7
  ret void
}

; Function Attrs: inlinehint nounwind sspstrong uwtable
define internal i64 @rb_obj_write(i64 noundef %0, ptr noundef %1, i64 noundef %2, ptr noundef %3, i32 noundef %4) #1 {
  %6 = alloca i64, align 8
  %7 = alloca ptr, align 8
  %8 = alloca i64, align 8
  %9 = alloca ptr, align 8
  %10 = alloca i32, align 4
  store i64 %0, ptr %6, align 8, !tbaa !7
  store ptr %1, ptr %7, align 8, !tbaa !14
  store i64 %2, ptr %8, align 8, !tbaa !7
  store ptr %3, ptr %9, align 8, !tbaa !28
  store i32 %4, ptr %10, align 4, !tbaa !31
  %11 = load i64, ptr %8, align 8, !tbaa !7
  %12 = load ptr, ptr %7, align 8, !tbaa !14
  store i64 %11, ptr %12, align 8, !tbaa !7
  %13 = load i64, ptr %6, align 8, !tbaa !7
  %14 = load i64, ptr %8, align 8, !tbaa !7
  %15 = load ptr, ptr %9, align 8, !tbaa !28
  %16 = load i32, ptr %10, align 4, !tbaa !31
  %17 = call i64 @rb_obj_written(i64 noundef %13, i64 noundef 36, i64 noundef %14, ptr noundef %15, i32 noundef %16)
  %18 = load i64, ptr %6, align 8, !tbaa !7
  ret i64 %18
}

; Function Attrs: nounwind sspstrong uwtable
define dso_local ptr @rb_ary_ptr_use_start(i64 noundef %0) #0 {
  %2 = alloca i64, align 8
  store i64 %0, ptr %2, align 8, !tbaa !7
  %3 = load i64, ptr %2, align 8, !tbaa !7
  %4 = call ptr @rb_array_const_ptr(i64 noundef %3) #26
  ret ptr %4
}

; Function Attrs: inlinehint nounwind sspstrong willreturn memory(read) uwtable
define internal ptr @rb_array_const_ptr(i64 noundef %0) #2 {
  %2 = alloca ptr, align 8
  %3 = alloca i64, align 8
  store i64 %0, ptr %3, align 8, !tbaa !7
  %4 = load i64, ptr %3, align 8, !tbaa !7
  %5 = call zeroext i1 @RB_FL_ANY_RAW(i64 noundef %4, i64 noundef 8192) #26
  br i1 %5, label %6, label %11

6:                                                ; preds = %1
  %7 = load i64, ptr %3, align 8, !tbaa !7
  %8 = inttoptr i64 %7 to ptr
  %9 = getelementptr inbounds nuw %struct.RArray, ptr %8, i32 0, i32 1
  %10 = getelementptr inbounds [1 x i64], ptr %9, i64 0, i64 0
  store ptr %10, ptr %2, align 8
  br label %17

11:                                               ; preds = %1
  %12 = load i64, ptr %3, align 8, !tbaa !7
  %13 = inttoptr i64 %12 to ptr
  %14 = getelementptr inbounds nuw %struct.RArray, ptr %13, i32 0, i32 1
  %15 = getelementptr inbounds nuw %struct.anon, ptr %14, i32 0, i32 2
  %16 = load ptr, ptr %15, align 8, !tbaa !13
  store ptr %16, ptr %2, align 8
  br label %17

17:                                               ; preds = %11, %6
  %18 = load ptr, ptr %2, align 8
  ret ptr %18
}

; Function Attrs: inlinehint nounwind sspstrong willreturn memory(read) uwtable
define internal i64 @RARRAY_EMBED_LEN(i64 noundef %0) #2 {
  %2 = alloca i64, align 8
  %3 = alloca i64, align 8
  store i64 %0, ptr %2, align 8, !tbaa !7
  call void @llvm.lifetime.start.p0(i64 8, ptr %3) #27
  %4 = load i64, ptr %2, align 8, !tbaa !7
  %5 = inttoptr i64 %4 to ptr
  %6 = getelementptr inbounds nuw %struct.RBasic, ptr %5, i32 0, i32 0
  %7 = load i64, ptr %6, align 8, !tbaa !11
  store i64 %7, ptr %3, align 8, !tbaa !7
  %8 = load i64, ptr %3, align 8, !tbaa !7
  %9 = and i64 %8, 4161536
  store i64 %9, ptr %3, align 8, !tbaa !7
  %10 = load i64, ptr %3, align 8, !tbaa !7
  %11 = lshr i64 %10, 15
  store i64 %11, ptr %3, align 8, !tbaa !7
  %12 = load i64, ptr %3, align 8, !tbaa !7
  call void @llvm.lifetime.end.p0(i64 8, ptr %3) #27
  ret i64 %12
}

; Function Attrs: inlinehint nounwind sspstrong willreturn memory(read) uwtable
define internal zeroext i1 @RB_FL_ANY_RAW(i64 noundef %0, i64 noundef %1) #2 {
  %3 = alloca i64, align 8
  %4 = alloca i64, align 8
  store i64 %0, ptr %3, align 8, !tbaa !7
  store i64 %1, ptr %4, align 8, !tbaa !7
  %5 = load i64, ptr %3, align 8, !tbaa !7
  %6 = load i64, ptr %4, align 8, !tbaa !7
  %7 = call i64 @RB_FL_TEST_RAW(i64 noundef %5, i64 noundef %6) #26
  %8 = icmp ne i64 %7, 0
  ret i1 %8
}

; Function Attrs: nounwind sspstrong uwtable
define dso_local i64 @rb_ary_push(i64 noundef %0, i64 noundef %1) #0 {
  %3 = alloca i64, align 8
  %4 = alloca i64, align 8
  %5 = alloca i64, align 8
  %6 = alloca i64, align 8
  %7 = alloca i64, align 8
  %8 = alloca ptr, align 8
  %9 = alloca i64, align 8
  store i64 %0, ptr %3, align 8, !tbaa !7
  store i64 %1, ptr %4, align 8, !tbaa !7
  call void @llvm.lifetime.start.p0(i64 8, ptr %5) #27
  %10 = load i64, ptr %3, align 8, !tbaa !7
  %11 = call i64 @rb_array_len(i64 noundef %10) #26
  store i64 %11, ptr %5, align 8, !tbaa !7
  call void @llvm.lifetime.start.p0(i64 8, ptr %6) #27
  %12 = load i64, ptr %3, align 8, !tbaa !7
  %13 = call i64 @ary_ensure_room_for_push(i64 noundef %12, i64 noundef 1)
  store i64 %13, ptr %6, align 8, !tbaa !7
  br label %14

14:                                               ; preds = %2
  call void @llvm.lifetime.start.p0(i64 8, ptr %7) #27
  %15 = load i64, ptr %3, align 8, !tbaa !7
  store i64 %15, ptr %7, align 8, !tbaa !7
  call void @llvm.lifetime.start.p0(i64 8, ptr %8) #27
  %16 = load i64, ptr %7, align 8, !tbaa !7
  %17 = call ptr @rb_ary_ptr_use_start(i64 noundef %16)
  store ptr %17, ptr %8, align 8, !tbaa !14
  %18 = load i64, ptr %6, align 8, !tbaa !7
  %19 = load ptr, ptr %8, align 8, !tbaa !14
  %20 = load i64, ptr %5, align 8, !tbaa !7
  %21 = getelementptr i64, ptr %19, i64 %20
  %22 = load i64, ptr %4, align 8, !tbaa !7
  %23 = call i64 @rb_obj_write(i64 noundef %18, ptr noundef %21, i64 noundef %22, ptr noundef @.str.3, i32 noundef 1383)
  %24 = load i64, ptr %7, align 8, !tbaa !7
  call void @rb_ary_ptr_use_end(i64 noundef %24)
  call void @llvm.lifetime.end.p0(i64 8, ptr %8) #27
  call void @llvm.lifetime.end.p0(i64 8, ptr %7) #27
  br label %25

25:                                               ; preds = %14
  br label %26

26:                                               ; preds = %25
  br label %27

27:                                               ; preds = %26
  %28 = load i64, ptr %3, align 8, !tbaa !7
  %29 = call zeroext i1 @ARY_EMBED_P(i64 noundef %28)
  br i1 %29, label %30, label %48

30:                                               ; preds = %27
  br label %31

31:                                               ; preds = %30
  call void @llvm.lifetime.start.p0(i64 8, ptr %9) #27
  %32 = load i64, ptr %5, align 8, !tbaa !7
  %33 = add i64 %32, 1
  store i64 %33, ptr %9, align 8, !tbaa !7
  %34 = load i64, ptr %3, align 8, !tbaa !7
  %35 = inttoptr i64 %34 to ptr
  %36 = getelementptr inbounds nuw %struct.RBasic, ptr %35, i32 0, i32 0
  %37 = load i64, ptr %36, align 8, !tbaa !11
  %38 = and i64 %37, -4161537
  store i64 %38, ptr %36, align 8, !tbaa !11
  %39 = load i64, ptr %9, align 8, !tbaa !7
  %40 = shl i64 %39, 15
  %41 = load i64, ptr %3, align 8, !tbaa !7
  %42 = inttoptr i64 %41 to ptr
  %43 = getelementptr inbounds nuw %struct.RBasic, ptr %42, i32 0, i32 0
  %44 = load i64, ptr %43, align 8, !tbaa !11
  %45 = or i64 %44, %40
  store i64 %45, ptr %43, align 8, !tbaa !11
  call void @llvm.lifetime.end.p0(i64 8, ptr %9) #27
  br label %46

46:                                               ; preds = %31
  br label %47

47:                                               ; preds = %46
  br label %58

48:                                               ; preds = %27
  br label %49

49:                                               ; preds = %48
  %50 = load i64, ptr %5, align 8, !tbaa !7
  %51 = add i64 %50, 1
  %52 = load i64, ptr %3, align 8, !tbaa !7
  %53 = inttoptr i64 %52 to ptr
  %54 = getelementptr inbounds nuw %struct.RArray, ptr %53, i32 0, i32 1
  %55 = getelementptr inbounds nuw %struct.anon, ptr %54, i32 0, i32 0
  store i64 %51, ptr %55, align 8, !tbaa !13
  br label %56

56:                                               ; preds = %49
  br label %57

57:                                               ; preds = %56
  br label %58

58:                                               ; preds = %57, %47
  br label %59

59:                                               ; preds = %58
  br label %60

60:                                               ; preds = %59
  %61 = load i64, ptr %3, align 8, !tbaa !7
  call void @llvm.lifetime.end.p0(i64 8, ptr %6) #27
  call void @llvm.lifetime.end.p0(i64 8, ptr %5) #27
  ret i64 %61
}

; Function Attrs: inlinehint nounwind sspstrong willreturn memory(read) uwtable
define internal i64 @RARRAY_AREF(i64 noundef %0, i64 noundef %1) #2 {
  %3 = alloca i64, align 8
  %4 = alloca i64, align 8
  %5 = alloca i64, align 8
  store i64 %0, ptr %3, align 8, !tbaa !7
  store i64 %1, ptr %4, align 8, !tbaa !7
  call void @llvm.lifetime.start.p0(i64 8, ptr %5) #27
  %6 = load i64, ptr %3, align 8, !tbaa !7
  %7 = call ptr @rb_array_const_ptr(i64 noundef %6) #26
  %8 = load i64, ptr %4, align 8, !tbaa !7
  %9 = getelementptr i64, ptr %7, i64 %8
  %10 = load i64, ptr %9, align 8, !tbaa !7
  store i64 %10, ptr %5, align 8, !tbaa !7
  %11 = load i64, ptr %5, align 8, !tbaa !7
  call void @llvm.lifetime.end.p0(i64 8, ptr %5) #27
  ret i64 %11
}

; Function Attrs: nounwind sspstrong uwtable
define dso_local i64 @rb_ary_new_capa(i64 noundef %0) #0 {
  %2 = alloca i64, align 8
  store i64 %0, ptr %2, align 8, !tbaa !7
  %3 = load i64, ptr @rb_cArray, align 8, !tbaa !7
  %4 = load i64, ptr %2, align 8, !tbaa !7
  %5 = call i64 @ary_new(i64 noundef %3, i64 noundef %4)
  ret i64 %5
}

; Function Attrs: inlinehint nounwind sspstrong willreturn memory(read) uwtable
define internal i64 @rb_array_len(i64 noundef %0) #2 {
  %2 = alloca i64, align 8
  %3 = alloca i64, align 8
  store i64 %0, ptr %3, align 8, !tbaa !7
  %4 = load i64, ptr %3, align 8, !tbaa !7
  %5 = call zeroext i1 @RB_FL_ANY_RAW(i64 noundef %4, i64 noundef 8192) #26
  br i1 %5, label %6, label %9

6:                                                ; preds = %1
  %7 = load i64, ptr %3, align 8, !tbaa !7
  %8 = call i64 @RARRAY_EMBED_LEN(i64 noundef %7) #26
  store i64 %8, ptr %2, align 8
  br label %15

9:                                                ; preds = %1
  %10 = load i64, ptr %3, align 8, !tbaa !7
  %11 = inttoptr i64 %10 to ptr
  %12 = getelementptr inbounds nuw %struct.RArray, ptr %11, i32 0, i32 1
  %13 = getelementptr inbounds nuw %struct.anon, ptr %12, i32 0, i32 0
  %14 = load i64, ptr %13, align 8, !tbaa !13
  store i64 %14, ptr %2, align 8
  br label %15

15:                                               ; preds = %9, %6
  %16 = load i64, ptr %2, align 8
  ret i64 %16
}

; Function Attrs: nounwind sspstrong uwtable
define internal i64 @rb_ary_collect(i64 noundef %0) #0 {
  %2 = alloca i64, align 8
  %3 = alloca i64, align 8
  %4 = alloca i64, align 8
  %5 = alloca i64, align 8
  %6 = alloca i32, align 4
  store i64 %0, ptr %3, align 8, !tbaa !7
  call void @llvm.lifetime.start.p0(i64 8, ptr %4) #27
  call void @llvm.lifetime.start.p0(i64 8, ptr %5) #27
  br label %7

7:                                                ; preds = %1
  %8 = call i32 @rb_block_given_p()
  %9 = icmp ne i32 %8, 0
  br i1 %9, label %15, label %10

10:                                               ; preds = %7
  %11 = load i64, ptr %3, align 8, !tbaa !7
  %12 = call i64 @rb_frame_this_func()
  %13 = call i64 @rb_id2sym(i64 noundef %12)
  %14 = call i64 @rb_enumeratorize_with_size(i64 noundef %11, i64 noundef %13, i32 noundef 0, ptr noundef null, ptr noundef @ary_enum_length)
  store i64 %14, ptr %2, align 8
  store i32 1, ptr %6, align 4
  br label %38

15:                                               ; preds = %7
  br label %16

16:                                               ; preds = %15
  br label %17

17:                                               ; preds = %16
  %18 = load i64, ptr %3, align 8, !tbaa !7
  %19 = call i64 @rb_array_len(i64 noundef %18) #26
  %20 = call i64 @rb_ary_new_capa(i64 noundef %19)
  store i64 %20, ptr %5, align 8, !tbaa !7
  store i64 0, ptr %4, align 8, !tbaa !7
  br label %21

21:                                               ; preds = %33, %17
  %22 = load i64, ptr %4, align 8, !tbaa !7
  %23 = load i64, ptr %3, align 8, !tbaa !7
  %24 = call i64 @rb_array_len(i64 noundef %23) #26
  %25 = icmp slt i64 %22, %24
  br i1 %25, label %26, label %36

26:                                               ; preds = %21
  %27 = load i64, ptr %5, align 8, !tbaa !7
  %28 = load i64, ptr %3, align 8, !tbaa !7
  %29 = load i64, ptr %4, align 8, !tbaa !7
  %30 = call i64 @RARRAY_AREF(i64 noundef %28, i64 noundef %29) #26
  %31 = call i64 @rb_yield(i64 noundef %30)
  %32 = call i64 @rb_ary_push(i64 noundef %27, i64 noundef %31)
  br label %33

33:                                               ; preds = %26
  %34 = load i64, ptr %4, align 8, !tbaa !7
  %35 = add i64 %34, 1
  store i64 %35, ptr %4, align 8, !tbaa !7
  br label %21, !llvm.loop !100

36:                                               ; preds = %21
  %37 = load i64, ptr %5, align 8, !tbaa !7
  store i64 %37, ptr %2, align 8
  store i32 1, ptr %6, align 4
  br label %38

38:                                               ; preds = %36, %10
  call void @llvm.lifetime.end.p0(i64 8, ptr %5) #27
  call void @llvm.lifetime.end.p0(i64 8, ptr %4) #27
  %39 = load i64, ptr %2, align 8
  ret i64 %39
}