; Function Attrs: nounwind sspstrong uwtable
define internal i64 @rb_ary_collect(i64 noundef %0) #4 {
  %2 = tail call i32 @rb_block_given_p() #24
  %.not = icmp eq i32 %2, 0
  br i1 %.not, label %3, label %7

3:                                                ; preds = %1
  %4 = tail call i64 @rb_frame_this_func() #24
  %5 = tail call i64 @rb_id2sym(i64 noundef %4) #24
  %6 = tail call i64 @rb_enumeratorize_with_size(i64 noundef %0, i64 noundef %5, i32 noundef 0, ptr noundef null, ptr noundef nonnull @ary_enum_length) #24
  br label %.loopexit

7:                                                ; preds = %1
  %8 = inttoptr i64 %0 to ptr
  %9 = load i64, ptr %8, align 8, !tbaa !7
  %10 = and i64 %9, 8192
  %.not.i = icmp eq i64 %10, 0
  br i1 %.not.i, label %14, label %11

11:                                               ; preds = %7
  %12 = lshr i64 %9, 15
  %13 = and i64 %12, 127
  br label %rb_array_len.exit

14:                                               ; preds = %7
  %15 = getelementptr inbounds nuw i8, ptr %8, i64 16
  %16 = load i64, ptr %15, align 8, !tbaa !12
  br label %rb_array_len.exit

rb_array_len.exit:                                ; preds = %11, %14
  %.0.i = phi i64 [ %13, %11 ], [ %16, %14 ]
  %17 = load i64, ptr @rb_cArray, align 8, !tbaa !13
  %18 = tail call fastcc i64 @ary_new(i64 noundef %17, i64 noundef %.0.i)
  %19 = getelementptr inbounds nuw i8, ptr %8, i64 16
  %20 = getelementptr inbounds nuw i8, ptr %8, i64 32
  %21 = inttoptr i64 %18 to ptr
  %22 = getelementptr inbounds nuw i8, ptr %21, i64 16
  %23 = getelementptr inbounds nuw i8, ptr %21, i64 32
  br label %24

24:                                               ; preds = %rb_ary_push.exit, %rb_array_len.exit
  %.010 = phi i64 [ 0, %rb_array_len.exit ], [ %64, %rb_ary_push.exit ]
  %25 = load i64, ptr %8, align 8, !tbaa !7
  %26 = and i64 %25, 8192
  %.not.i11 = icmp eq i64 %26, 0
  br i1 %.not.i11, label %rb_array_len.exit13, label %rb_array_len.exit13.thread

rb_array_len.exit13:                              ; preds = %24
  %27 = load i64, ptr %19, align 8, !tbaa !12
  %28 = icmp slt i64 %.010, %27
  br i1 %28, label %32, label %.loopexit

rb_array_len.exit13.thread:                       ; preds = %24
  %29 = lshr i64 %25, 15
  %30 = and i64 %29, 127
  %31 = icmp samesign ult i64 %.010, %30
  br i1 %31, label %RARRAY_AREF.exit, label %.loopexit

32:                                               ; preds = %rb_array_len.exit13
  %33 = load ptr, ptr %20, align 8, !tbaa !12
  br label %RARRAY_AREF.exit

RARRAY_AREF.exit:                                 ; preds = %rb_array_len.exit13.thread, %32
  %.0.i.i = phi ptr [ %33, %32 ], [ %19, %rb_array_len.exit13.thread ]
  %34 = getelementptr i64, ptr %.0.i.i, i64 %.010
  %35 = load i64, ptr %34, align 8, !tbaa !13
  %36 = tail call i64 @rb_yield(i64 noundef %35) #24
  %37 = load i64, ptr %21, align 8, !tbaa !7
  %38 = and i64 %37, 8192
  %.not.i.i14 = icmp eq i64 %38, 0
  br i1 %.not.i.i14, label %42, label %39

39:                                               ; preds = %RARRAY_AREF.exit
  %40 = lshr i64 %37, 15
  %41 = and i64 %40, 127
  br label %rb_array_len.exit.i

42:                                               ; preds = %RARRAY_AREF.exit
  %43 = load i64, ptr %22, align 8, !tbaa !12
  br label %rb_array_len.exit.i

rb_array_len.exit.i:                              ; preds = %42, %39
  %.0.i.i15 = phi i64 [ %41, %39 ], [ %43, %42 ]
  %44 = tail call fastcc i64 @ary_ensure_room_for_push(i64 noundef %18, i64 noundef 1)
  %45 = load i64, ptr %21, align 8, !tbaa !7
  %46 = and i64 %45, 8192
  %.not.i.i.i = icmp eq i64 %46, 0
  br i1 %.not.i.i.i, label %47, label %rb_ary_ptr_use_start.exit.i

47:                                               ; preds = %rb_array_len.exit.i
  %48 = load ptr, ptr %23, align 8, !tbaa !12
  br label %rb_ary_ptr_use_start.exit.i

rb_ary_ptr_use_start.exit.i:                      ; preds = %rb_array_len.exit.i, %47
  %.0.i.i.i = phi ptr [ %48, %47 ], [ %22, %rb_array_len.exit.i ]
  %49 = getelementptr i64, ptr %.0.i.i.i, i64 %.0.i.i15
  store i64 %36, ptr %49, align 8, !tbaa !13
  %50 = icmp eq i64 %36, 0
  %51 = and i64 %36, 7
  %52 = icmp ne i64 %51, 0
  %53 = or i1 %50, %52
  br i1 %53, label %rb_obj_write.exit.i, label %54

54:                                               ; preds = %rb_ary_ptr_use_start.exit.i
  tail call void @rb_gc_writebarrier(i64 noundef %44, i64 noundef %36) #24
  br label %rb_obj_write.exit.i

rb_obj_write.exit.i:                              ; preds = %54, %rb_ary_ptr_use_start.exit.i
  %55 = load i64, ptr %21, align 8, !tbaa !7
  %56 = and i64 %55, 8192
  %.not.i16 = icmp eq i64 %56, 0
  br i1 %.not.i16, label %62, label %57

57:                                               ; preds = %rb_obj_write.exit.i
  %58 = and i64 %55, -4161537
  %59 = shl i64 %.0.i.i15, 15
  %60 = add i64 %59, 32768
  %61 = or i64 %58, %60
  store i64 %61, ptr %21, align 8, !tbaa !7
  br label %rb_ary_push.exit

62:                                               ; preds = %rb_obj_write.exit.i
  %63 = add i64 %.0.i.i15, 1
  store i64 %63, ptr %22, align 8, !tbaa !12
  br label %rb_ary_push.exit

rb_ary_push.exit:                                 ; preds = %57, %62
  %64 = add nuw nsw i64 %.010, 1
  br label %24, !llvm.loop !98

.loopexit:                                        ; preds = %rb_array_len.exit13.thread, %rb_array_len.exit13, %3
  %.0 = phi i64 [ %6, %3 ], [ %18, %rb_array_len.exit13 ], [ %18, %rb_array_len.exit13.thread ]
  ret i64 %.0
}